   1              		.cpu cortex-m0plus
   2              		.fpu softvfp
   3              		.eabi_attribute 20, 1
   4              		.eabi_attribute 21, 1
   5              		.eabi_attribute 23, 3
   6              		.eabi_attribute 24, 1
   7              		.eabi_attribute 25, 1
   8              		.eabi_attribute 26, 1
   9              		.eabi_attribute 30, 4
  10              		.eabi_attribute 34, 0
  11              		.eabi_attribute 18, 4
  12              		.code	16
  13              		.file	"board_driver_led.c"
  14              		.section	.text.LED_pulse,"ax",%progbits
  15              		.align	1
  16              		.global	LED_pulse
  17              		.code	16
  18              		.thumb_func
  20              	LED_pulse:
  21 0000 10B5     		push	{r4, lr}
  22 0002 2049     		ldr	r1, .L11
  23 0004 204B     		ldr	r3, .L11+4
  24 0006 0A78     		ldrb	r2, [r1]
  25 0008 002A     		cmp	r2, #0
  26 000a 08D1     		bne	.L2
  27 000c 1F4A     		ldr	r2, .L11+8
  28 000e 1878     		ldrb	r0, [r3]
  29 0010 1278     		ldrb	r2, [r2]
  30 0012 8218     		add	r2, r0, r2
  31 0014 D2B2     		uxtb	r2, r2
  32 0016 1A70     		strb	r2, [r3]
  33 0018 1D4A     		ldr	r2, .L11+12
  34 001a 4020     		mov	r0, #64
  35 001c D061     		str	r0, [r2, #28]
  36              	.L2:
  37 001e 0A78     		ldrb	r2, [r1]
  38 0020 0132     		add	r2, r2, #1
  39 0022 D2B2     		uxtb	r2, r2
  40 0024 0A70     		strb	r2, [r1]
  41 0026 1A78     		ldrb	r2, [r3]
  42 0028 F02A     		cmp	r2, #240
  43 002a 08D9     		bls	.L3
  44 002c 174A     		ldr	r2, .L11+8
  45 002e 1078     		ldrb	r0, [r2]
  46 0030 4042     		neg	r0, r0
  47 0032 C0B2     		uxtb	r0, r0
  48 0034 1070     		strb	r0, [r2]
  49 0036 1878     		ldrb	r0, [r3]
  50 0038 1278     		ldrb	r2, [r2]
  51 003a 8218     		add	r2, r0, r2
  52 003c 17E0     		b	.L9
  53              	.L3:
  54 003e 154A     		ldr	r2, .L11+16
  55 0040 1C78     		ldrb	r4, [r3]
  56 0042 1078     		ldrb	r0, [r2]
  57 0044 8442     		cmp	r4, r0
  58 0046 14D2     		bcs	.L4
  59 0048 1048     		ldr	r0, .L11+8
  60 004a 0478     		ldrb	r4, [r0]
  61 004c 64B2     		sxtb	r4, r4
  62 004e 002C     		cmp	r4, #0
  63 0050 0FDA     		bge	.L4
  64 0052 1478     		ldrb	r4, [r2]
  65 0054 052C     		cmp	r4, #5
  66 0056 01D1     		bne	.L5
  67 0058 4624     		mov	r4, #70
  68 005a 00E0     		b	.L8
  69              	.L5:
  70 005c 0524     		mov	r4, #5
  71              	.L8:
  72 005e 1470     		strb	r4, [r2]
  73 0060 0278     		ldrb	r2, [r0]
  74 0062 5242     		neg	r2, r2
  75 0064 D2B2     		uxtb	r2, r2
  76 0066 0270     		strb	r2, [r0]
  77 0068 1C78     		ldrb	r4, [r3]
  78 006a 0278     		ldrb	r2, [r0]
  79 006c A218     		add	r2, r4, r2
  80              	.L9:
  81 006e D2B2     		uxtb	r2, r2
  82 0070 1A70     		strb	r2, [r3]
  83              	.L4:
  84 0072 0A78     		ldrb	r2, [r1]
  85 0074 1B78     		ldrb	r3, [r3]
  86 0076 9A42     		cmp	r2, r3
  87 0078 02D1     		bne	.L1
  88 007a 054B     		ldr	r3, .L11+12
  89 007c 4022     		mov	r2, #64
  90 007e DA61     		str	r2, [r3, #28]
  91              	.L1:
  92              		@ sp needed
  93 0080 10BD     		pop	{r4, pc}
  94              	.L12:
  95 0082 C046     		.align	2
  96              	.L11:
  97 0084 00000000 		.word	.LANCHOR0
  98 0088 00000000 		.word	.LANCHOR1
  99 008c 00000000 		.word	.LANCHOR2
 100 0090 00280040 		.word	1073752064
 101 0094 00000000 		.word	.LANCHOR3
 103              		.section	.text.LED_status,"ax",%progbits
 104              		.align	1
 105              		.global	LED_status
 106              		.code	16
 107              		.thumb_func
 109              	LED_status:
 110 0000 10B5     		push	{r4, lr}
 111              	@ 71 "/home/fido/.arduino15/packages/arduino/tools/CMSIS/4.5.0/CMSIS/Include/cmsis_gcc.h" 1
 112 0002 72B6     		cpsid i
 113              	@ 0 "" 2
 114              		.code	16
 115 0004 FA24     		mov	r4, #250
 116 0006 6400     		lsl	r4, r4, #1
 117 0008 4443     		mul	r4, r0
 118              	.L14:
 119 000a 034B     		ldr	r3, .L15
 120 000c 4022     		mov	r2, #64
 121 000e DA61     		str	r2, [r3, #28]
 122 0010 201C     		mov	r0, r4
 123 0012 FFF7FEFF 		bl	delayUs
 124 0016 F8E7     		b	.L14
 125              	.L16:
 126              		.align	2
 127              	.L15:
 128 0018 00280040 		.word	1073752064
 130              		.global	ledTargetValueMin
 131              		.global	ledDirection
 132              		.global	ledTargetValue
 133              		.global	ledKeepValue
 134              		.section	.data.ledDirection,"aw",%progbits
 135              		.set	.LANCHOR2,. + 0
 138              	ledDirection:
 139 0000 08       		.byte	8
 140              		.section	.bss.ledKeepValue,"aw",%nobits
 141              		.set	.LANCHOR0,. + 0
 144              	ledKeepValue:
 145 0000 00       		.space	1
 146              		.section	.data.ledTargetValue,"aw",%progbits
 147              		.set	.LANCHOR1,. + 0
 150              	ledTargetValue:
 151 0000 14       		.byte	20
 152              		.section	.data.ledTargetValueMin,"aw",%progbits
 153              		.set	.LANCHOR3,. + 0
 156              	ledTargetValueMin:
 157 0000 05       		.byte	5
 158              		.ident	"GCC: (GNU Tools for ARM Embedded Processors (Arduino build)) 4.8.3 20140228 (release) [ARM
DEFINED SYMBOLS
                            *ABS*:0000000000000000 board_driver_led.c
     /tmp/cckBxEfd.s:15     .text.LED_pulse:0000000000000000 $t
     /tmp/cckBxEfd.s:20     .text.LED_pulse:0000000000000000 LED_pulse
     /tmp/cckBxEfd.s:97     .text.LED_pulse:0000000000000084 $d
     /tmp/cckBxEfd.s:104    .text.LED_status:0000000000000000 $t
     /tmp/cckBxEfd.s:109    .text.LED_status:0000000000000000 LED_status
     /tmp/cckBxEfd.s:128    .text.LED_status:0000000000000018 $d
     /tmp/cckBxEfd.s:156    .data.ledTargetValueMin:0000000000000000 ledTargetValueMin
     /tmp/cckBxEfd.s:138    .data.ledDirection:0000000000000000 ledDirection
     /tmp/cckBxEfd.s:150    .data.ledTargetValue:0000000000000000 ledTargetValue
     /tmp/cckBxEfd.s:144    .bss.ledKeepValue:0000000000000000 ledKeepValue
     /tmp/cckBxEfd.s:145    .bss.ledKeepValue:0000000000000000 $d

UNDEFINED SYMBOLS
delayUs
