   1              		.cpu cortex-m0plus
   2              		.fpu softvfp
   3              		.eabi_attribute 20, 1
   4              		.eabi_attribute 21, 1
   5              		.eabi_attribute 23, 3
   6              		.eabi_attribute 24, 1
   7              		.eabi_attribute 25, 1
   8              		.eabi_attribute 26, 1
   9              		.eabi_attribute 30, 4
  10              		.eabi_attribute 34, 0
  11              		.eabi_attribute 18, 4
  12              		.code	16
  13              		.file	"sam_ba_serial.c"
  14              		.section	.text.serial_open,"ax",%progbits
  15              		.align	1
  16              		.global	serial_open
  17              		.code	16
  18              		.thumb_func
  20              	serial_open:
  21 0000 0120     		mov	r0, #1
  22 0002 08B5     		push	{r3, lr}
  23 0004 4042     		neg	r0, r0
  24 0006 FFF7FEFF 		bl	pinMux
  25 000a 0120     		mov	r0, #1
  26 000c 4042     		neg	r0, r0
  27 000e FFF7FEFF 		bl	pinMux
  28 0012 1548     		ldr	r0, .L5
  29 0014 FFF7FEFF 		bl	pinMux
  30 0018 1448     		ldr	r0, .L5+4
  31 001a FFF7FEFF 		bl	pinMux
  32 001e 144B     		ldr	r3, .L5+8
  33 0020 1F21     		mov	r1, #31
  34 0022 DA69     		ldr	r2, [r3, #28]
  35 0024 0A43     		orr	r2, r1
  36 0026 DA61     		str	r2, [r3, #28]
  37 0028 1A6A     		ldr	r2, [r3, #32]
  38 002a 0221     		mov	r1, #2
  39 002c 0A43     		orr	r2, r1
  40 002e 1A62     		str	r2, [r3, #32]
  41 0030 104B     		ldr	r3, .L5+12
  42 0032 4022     		mov	r2, #64
  43 0034 1A60     		str	r2, [r3]
  44              	.L3:
  45 0036 1A68     		ldr	r2, [r3]
  46 0038 5106     		lsl	r1, r2, #25
  47 003a FCD5     		bpl	.L3
  48 003c 8420     		mov	r0, #132
  49 003e C422     		mov	r2, #196
  50 0040 9203     		lsl	r2, r2, #14
  51 0042 C005     		lsl	r0, r0, #23
  52 0044 0C49     		ldr	r1, .L5+16
  53 0046 FFF7FEFF 		bl	uart_basic_init
  54 004a 0C4A     		ldr	r2, .L5+20
  55 004c 0023     		mov	r3, #0
  56 004e 1370     		strb	r3, [r2]
  57 0050 0B4A     		ldr	r2, .L5+24
  58              		@ sp needed
  59 0052 1370     		strb	r3, [r2]
  60 0054 0B4A     		ldr	r2, .L5+28
  61 0056 1370     		strb	r3, [r2]
  62 0058 0B4A     		ldr	r2, .L5+32
  63 005a 1370     		strb	r3, [r2]
  64 005c 0B4A     		ldr	r2, .L5+36
  65 005e 1370     		strb	r3, [r2]
  66 0060 0B4A     		ldr	r2, .L5+40
  67 0062 1370     		strb	r3, [r2]
  68 0064 08BD     		pop	{r3, pc}
  69              	.L6:
  70 0066 C046     		.align	2
  71              	.L5:
  72 0068 02000A00 		.word	655362
  73 006c 02000B00 		.word	720898
  74 0070 00040040 		.word	1073742848
  75 0074 C8180040 		.word	1073748168
  76 0078 2AF60000 		.word	63018
  77 007c 00000000 		.word	b_sharp_received
  78 0080 00000000 		.word	idx_rx_read
  79 0084 00000000 		.word	idx_rx_write
  80 0088 00000000 		.word	idx_tx_read
  81 008c 00000000 		.word	idx_tx_write
  82 0090 00000000 		.word	error_timeout
  84              		.section	.text.serial_close,"ax",%progbits
  85              		.align	1
  86              		.global	serial_close
  87              		.code	16
  88              		.thumb_func
  90              	serial_close:
  91 0000 08B5     		push	{r3, lr}
  92 0002 8420     		mov	r0, #132
  93 0004 C005     		lsl	r0, r0, #23
  94 0006 FFF7FEFF 		bl	uart_disable
  95              		@ sp needed
  96 000a 08BD     		pop	{r3, pc}
  98              		.section	.text.serial_putc,"ax",%progbits
  99              		.align	1
 100              		.global	serial_putc
 101              		.code	16
 102              		.thumb_func
 104              	serial_putc:
 105 0000 08B5     		push	{r3, lr}
 106 0002 C1B2     		uxtb	r1, r0
 107 0004 8420     		mov	r0, #132
 108 0006 C005     		lsl	r0, r0, #23
 109 0008 FFF7FEFF 		bl	uart_write_byte
 110              		@ sp needed
 111 000c 0120     		mov	r0, #1
 112 000e 08BD     		pop	{r3, pc}
 114              		.section	.text.serial_is_rx_ready,"ax",%progbits
 115              		.align	1
 116              		.global	serial_is_rx_ready
 117              		.code	16
 118              		.thumb_func
 120              	serial_is_rx_ready:
 121 0000 8423     		mov	r3, #132
 122 0002 DB05     		lsl	r3, r3, #23
 123 0004 187E     		ldrb	r0, [r3, #24]
 124              		@ sp needed
 125 0006 4007     		lsl	r0, r0, #29
 126 0008 C00F     		lsr	r0, r0, #31
 127 000a 7047     		bx	lr
 129              		.section	.text.serial_getc,"ax",%progbits
 130              		.align	1
 131              		.global	serial_getc
 132              		.code	16
 133              		.thumb_func
 135              	serial_getc:
 136 0000 08B5     		push	{r3, lr}
 137              	.L12:
 138 0002 FFF7FEFF 		bl	serial_is_rx_ready
 139 0006 0028     		cmp	r0, #0
 140 0008 FBD0     		beq	.L12
 141 000a 8420     		mov	r0, #132
 142 000c C005     		lsl	r0, r0, #23
 143 000e FFF7FEFF 		bl	uart_read_byte
 144              		@ sp needed
 145 0012 08BD     		pop	{r3, pc}
 147              		.section	.text.serial_sharp_received,"ax",%progbits
 148              		.align	1
 149              		.global	serial_sharp_received
 150              		.code	16
 151              		.thumb_func
 153              	serial_sharp_received:
 154 0000 08B5     		push	{r3, lr}
 155 0002 FFF7FEFF 		bl	serial_is_rx_ready
 156 0006 0023     		mov	r3, #0
 157 0008 9842     		cmp	r0, r3
 158 000a 05D0     		beq	.L14
 159 000c FFF7FEFF 		bl	serial_getc
 160 0010 031C     		mov	r3, r0
 161 0012 233B     		sub	r3, r3, #35
 162 0014 5A42     		neg	r2, r3
 163 0016 5341     		adc	r3, r3, r2
 164              	.L14:
 165 0018 181C     		mov	r0, r3
 166              		@ sp needed
 167 001a 08BD     		pop	{r3, pc}
 169              		.section	.text.serial_readc,"ax",%progbits
 170              		.align	1
 171              		.global	serial_readc
 172              		.code	16
 173              		.thumb_func
 175              	serial_readc:
 176 0000 054B     		ldr	r3, .L18
 177 0002 0649     		ldr	r1, .L18+4
 178 0004 1A78     		ldrb	r2, [r3]
 179              		@ sp needed
 180 0006 D2B2     		uxtb	r2, r2
 181 0008 885C     		ldrb	r0, [r1, r2]
 182 000a 1A78     		ldrb	r2, [r3]
 183 000c 7F21     		mov	r1, #127
 184 000e 0132     		add	r2, r2, #1
 185 0010 0A40     		and	r2, r1
 186 0012 C0B2     		uxtb	r0, r0
 187 0014 1A70     		strb	r2, [r3]
 188 0016 7047     		bx	lr
 189              	.L19:
 190              		.align	2
 191              	.L18:
 192 0018 00000000 		.word	idx_rx_read
 193 001c 00000000 		.word	buffer_rx_usart
 195              		.section	.text.serial_putdata,"ax",%progbits
 196              		.align	1
 197              		.global	serial_putdata
 198              		.code	16
 199              		.thumb_func
 201              	serial_putdata:
 202 0000 70B5     		push	{r4, r5, r6, lr}
 203 0002 041C     		mov	r4, r0
 204 0004 0D1C     		mov	r5, r1
 205 0006 4618     		add	r6, r0, r1
 206              	.L21:
 207 0008 B442     		cmp	r4, r6
 208 000a 04D0     		beq	.L23
 209 000c 2078     		ldrb	r0, [r4]
 210 000e FFF7FEFF 		bl	serial_putc
 211 0012 0134     		add	r4, r4, #1
 212 0014 F8E7     		b	.L21
 213              	.L23:
 214 0016 281C     		mov	r0, r5
 215              		@ sp needed
 216 0018 70BD     		pop	{r4, r5, r6, pc}
 218              		.section	.text.serial_getdata,"ax",%progbits
 219              		.align	1
 220              		.global	serial_getdata
 221              		.code	16
 222              		.thumb_func
 224              	serial_getdata:
 225 0000 10B5     		push	{r4, lr}
 226 0002 041C     		mov	r4, r0
 227 0004 FFF7FEFF 		bl	serial_getc
 228              		@ sp needed
 229 0008 2070     		strb	r0, [r4]
 230 000a 0120     		mov	r0, #1
 231 000c 10BD     		pop	{r4, pc}
 233              		.section	.text.serial_add_crc,"ax",%progbits
 234              		.align	1
 235              		.global	serial_add_crc
 236              		.code	16
 237              		.thumb_func
 239              	serial_add_crc:
 240 0000 0B0A     		lsr	r3, r1, #8
 241 0002 5840     		eor	r0, r3
 242 0004 034B     		ldr	r3, .L26
 243 0006 4000     		lsl	r0, r0, #1
 244 0008 C05A     		ldrh	r0, [r0, r3]
 245 000a 0902     		lsl	r1, r1, #8
 246 000c 4840     		eor	r0, r1
 247 000e 80B2     		uxth	r0, r0
 248              		@ sp needed
 249 0010 7047     		bx	lr
 250              	.L27:
 251 0012 C046     		.align	2
 252              	.L26:
 253 0014 00000000 		.word	.LANCHOR0
 255              		.section	.text.getbytes,"ax",%progbits
 256              		.align	1
 257              		.code	16
 258              		.thumb_func
 260              	getbytes:
 261 0000 F7B5     		push	{r0, r1, r2, r4, r5, r6, r7, lr}
 262 0002 0024     		mov	r4, #0
 263 0004 051C     		mov	r5, r0
 264 0006 0F1C     		mov	r7, r1
 265 0008 261C     		mov	r6, r4
 266              	.L29:
 267 000a BC42     		cmp	r4, r7
 268 000c 20D0     		beq	.L37
 269 000e FFF7FEFF 		bl	serial_getc
 270 0012 114B     		ldr	r3, .L38
 271 0014 C0B2     		uxtb	r0, r0
 272 0016 1B78     		ldrb	r3, [r3]
 273 0018 0190     		str	r0, [sp, #4]
 274 001a 002B     		cmp	r3, #0
 275 001c 1AD1     		bne	.L34
 276 001e 311C     		mov	r1, r6
 277 0020 FFF7FEFF 		bl	serial_add_crc
 278 0024 0D4B     		ldr	r3, .L38+4
 279 0026 061C     		mov	r6, r0
 280 0028 1A88     		ldrh	r2, [r3]
 281 002a 002A     		cmp	r2, #0
 282 002c 04D1     		bne	.L31
 283 002e 0C4A     		ldr	r2, .L38+8
 284 0030 1178     		ldrb	r1, [r2]
 285 0032 2A1C     		mov	r2, r5
 286 0034 0029     		cmp	r1, #0
 287 0036 07D0     		beq	.L32
 288              	.L31:
 289 0038 0199     		ldr	r1, [sp, #4]
 290 003a 6A1C     		add	r2, r5, #1
 291 003c 2970     		strb	r1, [r5]
 292 003e 802F     		cmp	r7, #128
 293 0040 02D1     		bne	.L32
 294 0042 1988     		ldrh	r1, [r3]
 295 0044 0139     		sub	r1, r1, #1
 296 0046 1980     		strh	r1, [r3]
 297              	.L32:
 298 0048 0134     		add	r4, r4, #1
 299 004a A4B2     		uxth	r4, r4
 300 004c 151C     		mov	r5, r2
 301 004e DCE7     		b	.L29
 302              	.L37:
 303 0050 301C     		mov	r0, r6
 304 0052 00E0     		b	.L30
 305              	.L34:
 306 0054 0120     		mov	r0, #1
 307              	.L30:
 308              		@ sp needed
 309 0056 FEBD     		pop	{r1, r2, r3, r4, r5, r6, r7, pc}
 310              	.L39:
 311              		.align	2
 312              	.L38:
 313 0058 00000000 		.word	error_timeout
 314 005c 00000000 		.word	size_of_data
 315 0060 00000000 		.word	mode_of_transfer
 317              		.section	.text.serial_putdata_xmd,"ax",%progbits
 318              		.align	1
 319              		.global	serial_putdata_xmd
 320              		.code	16
 321              		.thumb_func
 323              	serial_putdata_xmd:
 324 0000 F0B5     		push	{r4, r5, r6, r7, lr}
 325 0002 3E4E     		ldr	r6, .L78
 326 0004 85B0     		sub	sp, sp, #20
 327 0006 0022     		mov	r2, #0
 328 0008 0390     		str	r0, [sp, #12]
 329 000a 0C1C     		mov	r4, r1
 330 000c 3270     		strb	r2, [r6]
 331 000e 3C4B     		ldr	r3, .L78+4
 332 0010 9142     		cmp	r1, r2
 333 0012 01D1     		bne	.L41
 334 0014 0122     		mov	r2, #1
 335 0016 01E0     		b	.L77
 336              	.L41:
 337 0018 3A49     		ldr	r1, .L78+8
 338 001a 0C80     		strh	r4, [r1]
 339              	.L77:
 340 001c 1A70     		strb	r2, [r3]
 341 001e 7F23     		mov	r3, #127
 342 0020 1C42     		tst	r4, r3
 343 0022 01D0     		beq	.L49
 344 0024 8034     		add	r4, r4, #128
 345 0026 9C43     		bic	r4, r3
 346              	.L49:
 347 0028 FFF7FEFF 		bl	serial_getc
 348 002c 3378     		ldrb	r3, [r6]
 349 002e C0B2     		uxtb	r0, r0
 350 0030 002B     		cmp	r3, #0
 351 0032 07D0     		beq	.L45
 352 0034 0025     		mov	r5, #0
 353 0036 3570     		strb	r5, [r6]
 354 0038 FFF7FEFF 		bl	serial_getc
 355 003c 3378     		ldrb	r3, [r6]
 356 003e C0B2     		uxtb	r0, r0
 357 0040 AB42     		cmp	r3, r5
 358 0042 36D1     		bne	.L58
 359              	.L45:
 360 0044 4328     		cmp	r0, #67
 361 0046 03D0     		beq	.L48
 362 0048 7128     		cmp	r0, #113
 363 004a 53D0     		beq	.L60
 364 004c 1528     		cmp	r0, #21
 365 004e EBD1     		bne	.L49
 366              	.L48:
 367 0050 0123     		mov	r3, #1
 368 0052 0093     		str	r3, [sp]
 369              	.L53:
 370 0054 0120     		mov	r0, #1
 371 0056 FFF7FEFF 		bl	serial_putc
 372 005a 0098     		ldr	r0, [sp]
 373 005c FFF7FEFF 		bl	serial_putc
 374 0060 0099     		ldr	r1, [sp]
 375 0062 8025     		mov	r5, #128
 376 0064 C843     		mvn	r0, r1
 377 0066 C0B2     		uxtb	r0, r0
 378 0068 FFF7FEFF 		bl	serial_putc
 379 006c 039B     		ldr	r3, [sp, #12]
 380 006e 0027     		mov	r7, #0
 381 0070 0293     		str	r3, [sp, #8]
 382              	.L57:
 383 0072 244A     		ldr	r2, .L78+8
 384 0074 1388     		ldrh	r3, [r2]
 385 0076 002B     		cmp	r3, #0
 386 0078 1DD1     		bne	.L54
 387 007a 2149     		ldr	r1, .L78+4
 388 007c 0193     		str	r3, [sp, #4]
 389 007e 0978     		ldrb	r1, [r1]
 390 0080 0029     		cmp	r1, #0
 391 0082 18D1     		bne	.L54
 392              	.L55:
 393 0084 0198     		ldr	r0, [sp, #4]
 394 0086 FFF7FEFF 		bl	serial_putc
 395 008a 391C     		mov	r1, r7
 396 008c 0198     		ldr	r0, [sp, #4]
 397 008e FFF7FEFF 		bl	serial_add_crc
 398 0092 013D     		sub	r5, r5, #1
 399 0094 071C     		mov	r7, r0
 400 0096 002D     		cmp	r5, #0
 401 0098 EBD1     		bne	.L57
 402 009a 000A     		lsr	r0, r0, #8
 403 009c C0B2     		uxtb	r0, r0
 404 009e FFF7FEFF 		bl	serial_putc
 405 00a2 F8B2     		uxtb	r0, r7
 406 00a4 FFF7FEFF 		bl	serial_putc
 407 00a8 FFF7FEFF 		bl	serial_getc
 408 00ac 3378     		ldrb	r3, [r6]
 409 00ae 002B     		cmp	r3, #0
 410 00b0 0AD0     		beq	.L76
 411              	.L58:
 412 00b2 3570     		strb	r5, [r6]
 413 00b4 1FE0     		b	.L46
 414              	.L54:
 415 00b6 0299     		ldr	r1, [sp, #8]
 416 00b8 013B     		sub	r3, r3, #1
 417 00ba 0978     		ldrb	r1, [r1]
 418 00bc 1380     		strh	r3, [r2]
 419 00be 029B     		ldr	r3, [sp, #8]
 420 00c0 0191     		str	r1, [sp, #4]
 421 00c2 0133     		add	r3, r3, #1
 422 00c4 0293     		str	r3, [sp, #8]
 423 00c6 DDE7     		b	.L55
 424              	.L76:
 425 00c8 C0B2     		uxtb	r0, r0
 426 00ca 0628     		cmp	r0, #6
 427 00cc 07D1     		bne	.L50
 428 00ce 009B     		ldr	r3, [sp]
 429 00d0 0399     		ldr	r1, [sp, #12]
 430 00d2 0133     		add	r3, r3, #1
 431 00d4 DBB2     		uxtb	r3, r3
 432 00d6 8031     		add	r1, r1, #128
 433 00d8 0093     		str	r3, [sp]
 434 00da 803C     		sub	r4, r4, #128
 435 00dc 0391     		str	r1, [sp, #12]
 436              	.L50:
 437 00de 002C     		cmp	r4, #0
 438 00e0 B8D1     		bne	.L53
 439 00e2 0420     		mov	r0, #4
 440 00e4 FFF7FEFF 		bl	serial_putc
 441 00e8 FFF7FEFF 		bl	serial_getc
 442 00ec 044B     		ldr	r3, .L78+4
 443 00ee 0125     		mov	r5, #1
 444 00f0 1C70     		strb	r4, [r3]
 445 00f2 00E0     		b	.L46
 446              	.L60:
 447 00f4 0025     		mov	r5, #0
 448              	.L46:
 449 00f6 281C     		mov	r0, r5
 450 00f8 05B0     		add	sp, sp, #20
 451              		@ sp needed
 452 00fa F0BD     		pop	{r4, r5, r6, r7, pc}
 453              	.L79:
 454              		.align	2
 455              	.L78:
 456 00fc 00000000 		.word	error_timeout
 457 0100 00000000 		.word	mode_of_transfer
 458 0104 00000000 		.word	size_of_data
 460              		.section	.text.serial_getdata_xmd,"ax",%progbits
 461              		.align	1
 462              		.global	serial_getdata_xmd
 463              		.code	16
 464              		.thumb_func
 466              	serial_getdata_xmd:
 467 0000 F0B5     		push	{r4, r5, r6, r7, lr}
 468 0002 384C     		ldr	r4, .L114
 469 0004 87B0     		sub	sp, sp, #28
 470 0006 0023     		mov	r3, #0
 471 0008 0190     		str	r0, [sp, #4]
 472 000a 2370     		strb	r3, [r4]
 473 000c 9942     		cmp	r1, r3
 474 000e 01D1     		bne	.L81
 475 0010 0123     		mov	r3, #1
 476 0012 01E0     		b	.L111
 477              	.L81:
 478 0014 344A     		ldr	r2, .L114+4
 479 0016 1180     		strh	r1, [r2]
 480              	.L111:
 481 0018 344A     		ldr	r2, .L114+8
 482 001a 6426     		mov	r6, #100
 483 001c 1370     		strb	r3, [r2]
 484              	.L89:
 485 001e 4320     		mov	r0, #67
 486 0020 FFF7FEFF 		bl	serial_putc
 487 0024 324F     		ldr	r7, .L114+12
 488              	.L83:
 489 0026 FFF7FEFF 		bl	serial_is_rx_ready
 490 002a 0028     		cmp	r0, #0
 491 002c 03D1     		bne	.L84
 492 002e 002F     		cmp	r7, #0
 493 0030 03D0     		beq	.L86
 494 0032 013F     		sub	r7, r7, #1
 495 0034 F7E7     		b	.L83
 496              	.L84:
 497 0036 002F     		cmp	r7, #0
 498 0038 03D1     		bne	.L87
 499              	.L86:
 500 003a 013E     		sub	r6, r6, #1
 501 003c 002E     		cmp	r6, #0
 502 003e EED1     		bne	.L89
 503 0040 4DE0     		b	.L106
 504              	.L87:
 505 0042 0125     		mov	r5, #1
 506              	.L102:
 507 0044 FFF7FEFF 		bl	serial_getc
 508 0048 2378     		ldrb	r3, [r4]
 509 004a 002B     		cmp	r3, #0
 510 004c 38D1     		bne	.L113
 511 004e C0B2     		uxtb	r0, r0
 512 0050 0290     		str	r0, [sp, #8]
 513 0052 0128     		cmp	r0, #1
 514 0054 05D0     		beq	.L92
 515 0056 0428     		cmp	r0, #4
 516 0058 3DD1     		bne	.L91
 517 005a 0620     		mov	r0, #6
 518 005c FFF7FEFF 		bl	serial_putc
 519 0060 39E0     		b	.L91
 520              	.L92:
 521 0062 05AE     		add	r6, sp, #20
 522 0064 0221     		mov	r1, #2
 523 0066 301C     		mov	r0, r6
 524 0068 FFF7FEFF 		bl	getbytes
 525 006c 0198     		ldr	r0, [sp, #4]
 526 006e 8021     		mov	r1, #128
 527 0070 FFF7FEFF 		bl	getbytes
 528 0074 2378     		ldrb	r3, [r4]
 529 0076 0390     		str	r0, [sp, #12]
 530 0078 002B     		cmp	r3, #0
 531 007a 18D1     		bne	.L112
 532 007c FFF7FEFF 		bl	serial_getc
 533 0080 0702     		lsl	r7, r0, #8
 534 0082 FFF7FEFF 		bl	serial_getc
 535 0086 BFB2     		uxth	r7, r7
 536 0088 2378     		ldrb	r3, [r4]
 537 008a 3F18     		add	r7, r7, r0
 538 008c BFB2     		uxth	r7, r7
 539 008e 012B     		cmp	r3, #1
 540 0090 0DD0     		beq	.L112
 541 0092 039B     		ldr	r3, [sp, #12]
 542 0094 9F42     		cmp	r7, r3
 543 0096 07D1     		bne	.L97
 544 0098 3378     		ldrb	r3, [r6]
 545 009a AB42     		cmp	r3, r5
 546 009c 04D1     		bne	.L97
 547 009e EB43     		mvn	r3, r5
 548 00a0 7278     		ldrb	r2, [r6, #1]
 549 00a2 DBB2     		uxtb	r3, r3
 550 00a4 9A42     		cmp	r2, r3
 551 00a6 04D0     		beq	.L98
 552              	.L97:
 553 00a8 1820     		mov	r0, #24
 554 00aa FFF7FEFF 		bl	serial_putc
 555              	.L112:
 556 00ae 0023     		mov	r3, #0
 557 00b0 03E0     		b	.L95
 558              	.L98:
 559 00b2 0620     		mov	r0, #6
 560 00b4 FFF7FEFF 		bl	serial_putc
 561 00b8 029B     		ldr	r3, [sp, #8]
 562              	.L95:
 563 00ba 2278     		ldrb	r2, [r4]
 564 00bc 002A     		cmp	r2, #0
 565 00be 02D0     		beq	.L99
 566              	.L113:
 567 00c0 0026     		mov	r6, #0
 568 00c2 2670     		strb	r6, [r4]
 569 00c4 0BE0     		b	.L106
 570              	.L99:
 571 00c6 012B     		cmp	r3, #1
 572 00c8 05D1     		bne	.L91
 573 00ca 019A     		ldr	r2, [sp, #4]
 574 00cc 6B1C     		add	r3, r5, #1
 575 00ce 8032     		add	r2, r2, #128
 576 00d0 DDB2     		uxtb	r5, r3
 577 00d2 0192     		str	r2, [sp, #4]
 578 00d4 B6E7     		b	.L102
 579              	.L91:
 580 00d6 054A     		ldr	r2, .L114+8
 581 00d8 0023     		mov	r3, #0
 582 00da 1370     		strb	r3, [r2]
 583 00dc 0126     		mov	r6, #1
 584              	.L106:
 585 00de 301C     		mov	r0, r6
 586 00e0 07B0     		add	sp, sp, #28
 587              		@ sp needed
 588 00e2 F0BD     		pop	{r4, r5, r6, r7, pc}
 589              	.L115:
 590              		.align	2
 591              	.L114:
 592 00e4 00000000 		.word	error_timeout
 593 00e8 00000000 		.word	size_of_data
 594 00ec 00000000 		.word	mode_of_transfer
 595 00f0 00350C00 		.word	800000
 597              		.comm	mode_of_transfer,1,1
 598              		.comm	size_of_data,2,2
 599              		.comm	error_timeout,1,1
 600              		.comm	idx_tx_write,1,1
 601              		.comm	idx_tx_read,1,1
 602              		.comm	buffer_tx_usart,128,1
 603              		.comm	idx_rx_write,1,1
 604              		.comm	idx_rx_read,1,1
 605              		.comm	buffer_rx_usart,128,1
 606              		.comm	b_sharp_received,1,1
 607              		.section	.rodata.crc16Table,"a",%progbits
 608              		.align	1
 609              		.set	.LANCHOR0,. + 0
 612              	crc16Table:
 613 0000 0000     		.short	0
 614 0002 2110     		.short	4129
 615 0004 4220     		.short	8258
 616 0006 6330     		.short	12387
 617 0008 8440     		.short	16516
 618 000a A550     		.short	20645
 619 000c C660     		.short	24774
 620 000e E770     		.short	28903
 621 0010 0881     		.short	-32504
 622 0012 2991     		.short	-28375
 623 0014 4AA1     		.short	-24246
 624 0016 6BB1     		.short	-20117
 625 0018 8CC1     		.short	-15988
 626 001a ADD1     		.short	-11859
 627 001c CEE1     		.short	-7730
 628 001e EFF1     		.short	-3601
 629 0020 3112     		.short	4657
 630 0022 1002     		.short	528
 631 0024 7332     		.short	12915
 632 0026 5222     		.short	8786
 633 0028 B552     		.short	21173
 634 002a 9442     		.short	17044
 635 002c F772     		.short	29431
 636 002e D662     		.short	25302
 637 0030 3993     		.short	-27847
 638 0032 1883     		.short	-31976
 639 0034 7BB3     		.short	-19589
 640 0036 5AA3     		.short	-23718
 641 0038 BDD3     		.short	-11331
 642 003a 9CC3     		.short	-15460
 643 003c FFF3     		.short	-3073
 644 003e DEE3     		.short	-7202
 645 0040 6224     		.short	9314
 646 0042 4334     		.short	13379
 647 0044 2004     		.short	1056
 648 0046 0114     		.short	5121
 649 0048 E664     		.short	25830
 650 004a C774     		.short	29895
 651 004c A444     		.short	17572
 652 004e 8554     		.short	21637
 653 0050 6AA5     		.short	-23190
 654 0052 4BB5     		.short	-19125
 655 0054 2885     		.short	-31448
 656 0056 0995     		.short	-27383
 657 0058 EEE5     		.short	-6674
 658 005a CFF5     		.short	-2609
 659 005c ACC5     		.short	-14932
 660 005e 8DD5     		.short	-10867
 661 0060 5336     		.short	13907
 662 0062 7226     		.short	9842
 663 0064 1116     		.short	5649
 664 0066 3006     		.short	1584
 665 0068 D776     		.short	30423
 666 006a F666     		.short	26358
 667 006c 9556     		.short	22165
 668 006e B446     		.short	18100
 669 0070 5BB7     		.short	-18597
 670 0072 7AA7     		.short	-22662
 671 0074 1997     		.short	-26855
 672 0076 3887     		.short	-30920
 673 0078 DFF7     		.short	-2081
 674 007a FEE7     		.short	-6146
 675 007c 9DD7     		.short	-10339
 676 007e BCC7     		.short	-14404
 677 0080 C448     		.short	18628
 678 0082 E558     		.short	22757
 679 0084 8668     		.short	26758
 680 0086 A778     		.short	30887
 681 0088 4008     		.short	2112
 682 008a 6118     		.short	6241
 683 008c 0228     		.short	10242
 684 008e 2338     		.short	14371
 685 0090 CCC9     		.short	-13876
 686 0092 EDD9     		.short	-9747
 687 0094 8EE9     		.short	-5746
 688 0096 AFF9     		.short	-1617
 689 0098 4889     		.short	-30392
 690 009a 6999     		.short	-26263
 691 009c 0AA9     		.short	-22262
 692 009e 2BB9     		.short	-18133
 693 00a0 F55A     		.short	23285
 694 00a2 D44A     		.short	19156
 695 00a4 B77A     		.short	31415
 696 00a6 966A     		.short	27286
 697 00a8 711A     		.short	6769
 698 00aa 500A     		.short	2640
 699 00ac 333A     		.short	14899
 700 00ae 122A     		.short	10770
 701 00b0 FDDB     		.short	-9219
 702 00b2 DCCB     		.short	-13348
 703 00b4 BFFB     		.short	-1089
 704 00b6 9EEB     		.short	-5218
 705 00b8 799B     		.short	-25735
 706 00ba 588B     		.short	-29864
 707 00bc 3BBB     		.short	-17605
 708 00be 1AAB     		.short	-21734
 709 00c0 A66C     		.short	27814
 710 00c2 877C     		.short	31879
 711 00c4 E44C     		.short	19684
 712 00c6 C55C     		.short	23749
 713 00c8 222C     		.short	11298
 714 00ca 033C     		.short	15363
 715 00cc 600C     		.short	3168
 716 00ce 411C     		.short	7233
 717 00d0 AEED     		.short	-4690
 718 00d2 8FFD     		.short	-625
 719 00d4 ECCD     		.short	-12820
 720 00d6 CDDD     		.short	-8755
 721 00d8 2AAD     		.short	-21206
 722 00da 0BBD     		.short	-17141
 723 00dc 688D     		.short	-29336
 724 00de 499D     		.short	-25271
 725 00e0 977E     		.short	32407
 726 00e2 B66E     		.short	28342
 727 00e4 D55E     		.short	24277
 728 00e6 F44E     		.short	20212
 729 00e8 133E     		.short	15891
 730 00ea 322E     		.short	11826
 731 00ec 511E     		.short	7761
 732 00ee 700E     		.short	3696
 733 00f0 9FFF     		.short	-97
 734 00f2 BEEF     		.short	-4162
 735 00f4 DDDF     		.short	-8227
 736 00f6 FCCF     		.short	-12292
 737 00f8 1BBF     		.short	-16613
 738 00fa 3AAF     		.short	-20678
 739 00fc 599F     		.short	-24743
 740 00fe 788F     		.short	-28808
 741 0100 8891     		.short	-28280
 742 0102 A981     		.short	-32343
 743 0104 CAB1     		.short	-20022
 744 0106 EBA1     		.short	-24085
 745 0108 0CD1     		.short	-12020
 746 010a 2DC1     		.short	-16083
 747 010c 4EF1     		.short	-3762
 748 010e 6FE1     		.short	-7825
 749 0110 8010     		.short	4224
 750 0112 A100     		.short	161
 751 0114 C230     		.short	12482
 752 0116 E320     		.short	8419
 753 0118 0450     		.short	20484
 754 011a 2540     		.short	16421
 755 011c 4670     		.short	28742
 756 011e 6760     		.short	24679
 757 0120 B983     		.short	-31815
 758 0122 9893     		.short	-27752
 759 0124 FBA3     		.short	-23557
 760 0126 DAB3     		.short	-19494
 761 0128 3DC3     		.short	-15555
 762 012a 1CD3     		.short	-11492
 763 012c 7FE3     		.short	-7297
 764 012e 5EF3     		.short	-3234
 765 0130 B102     		.short	689
 766 0132 9012     		.short	4752
 767 0134 F322     		.short	8947
 768 0136 D232     		.short	13010
 769 0138 3542     		.short	16949
 770 013a 1452     		.short	21012
 771 013c 7762     		.short	25207
 772 013e 5672     		.short	29270
 773 0140 EAB5     		.short	-18966
 774 0142 CBA5     		.short	-23093
 775 0144 A895     		.short	-27224
 776 0146 8985     		.short	-31351
 777 0148 6EF5     		.short	-2706
 778 014a 4FE5     		.short	-6833
 779 014c 2CD5     		.short	-10964
 780 014e 0DC5     		.short	-15091
 781 0150 E234     		.short	13538
 782 0152 C324     		.short	9411
 783 0154 A014     		.short	5280
 784 0156 8104     		.short	1153
 785 0158 6674     		.short	29798
 786 015a 4764     		.short	25671
 787 015c 2454     		.short	21540
 788 015e 0544     		.short	17413
 789 0160 DBA7     		.short	-22565
 790 0162 FAB7     		.short	-18438
 791 0164 9987     		.short	-30823
 792 0166 B897     		.short	-26696
 793 0168 5FE7     		.short	-6305
 794 016a 7EF7     		.short	-2178
 795 016c 1DC7     		.short	-14563
 796 016e 3CD7     		.short	-10436
 797 0170 D326     		.short	9939
 798 0172 F236     		.short	14066
 799 0174 9106     		.short	1681
 800 0176 B016     		.short	5808
 801 0178 5766     		.short	26199
 802 017a 7676     		.short	30326
 803 017c 1546     		.short	17941
 804 017e 3456     		.short	22068
 805 0180 4CD9     		.short	-9908
 806 0182 6DC9     		.short	-13971
 807 0184 0EF9     		.short	-1778
 808 0186 2FE9     		.short	-5841
 809 0188 C899     		.short	-26168
 810 018a E989     		.short	-30231
 811 018c 8AB9     		.short	-18038
 812 018e ABA9     		.short	-22101
 813 0190 4458     		.short	22596
 814 0192 6548     		.short	18533
 815 0194 0678     		.short	30726
 816 0196 2768     		.short	26663
 817 0198 C018     		.short	6336
 818 019a E108     		.short	2273
 819 019c 8238     		.short	14466
 820 019e A328     		.short	10403
 821 01a0 7DCB     		.short	-13443
 822 01a2 5CDB     		.short	-9380
 823 01a4 3FEB     		.short	-5313
 824 01a6 1EFB     		.short	-1250
 825 01a8 F98B     		.short	-29703
 826 01aa D89B     		.short	-25640
 827 01ac BBAB     		.short	-21573
 828 01ae 9ABB     		.short	-17510
 829 01b0 754A     		.short	19061
 830 01b2 545A     		.short	23124
 831 01b4 376A     		.short	27191
 832 01b6 167A     		.short	31254
 833 01b8 F10A     		.short	2801
 834 01ba D01A     		.short	6864
 835 01bc B32A     		.short	10931
 836 01be 923A     		.short	14994
 837 01c0 2EFD     		.short	-722
 838 01c2 0FED     		.short	-4849
 839 01c4 6CDD     		.short	-8852
 840 01c6 4DCD     		.short	-12979
 841 01c8 AABD     		.short	-16982
 842 01ca 8BAD     		.short	-21109
 843 01cc E89D     		.short	-25112
 844 01ce C98D     		.short	-29239
 845 01d0 267C     		.short	31782
 846 01d2 076C     		.short	27655
 847 01d4 645C     		.short	23652
 848 01d6 454C     		.short	19525
 849 01d8 A23C     		.short	15522
 850 01da 832C     		.short	11395
 851 01dc E01C     		.short	7392
 852 01de C10C     		.short	3265
 853 01e0 1FEF     		.short	-4321
 854 01e2 3EFF     		.short	-194
 855 01e4 5DCF     		.short	-12451
 856 01e6 7CDF     		.short	-8324
 857 01e8 9BAF     		.short	-20581
 858 01ea BABF     		.short	-16454
 859 01ec D98F     		.short	-28711
 860 01ee F89F     		.short	-24584
 861 01f0 176E     		.short	28183
 862 01f2 367E     		.short	32310
 863 01f4 554E     		.short	20053
 864 01f6 745E     		.short	24180
 865 01f8 932E     		.short	11923
 866 01fa B23E     		.short	16050
 867 01fc D10E     		.short	3793
 868 01fe F01E     		.short	7920
 869              		.ident	"GCC: (GNU Tools for ARM Embedded Processors (Arduino build)) 4.8.3 20140228 (release) [ARM
DEFINED SYMBOLS
                            *ABS*:0000000000000000 sam_ba_serial.c
     /tmp/ccaVvWu8.s:15     .text.serial_open:0000000000000000 $t
     /tmp/ccaVvWu8.s:20     .text.serial_open:0000000000000000 serial_open
     /tmp/ccaVvWu8.s:72     .text.serial_open:0000000000000068 $d
                            *COM*:0000000000000001 b_sharp_received
                            *COM*:0000000000000001 idx_rx_read
                            *COM*:0000000000000001 idx_rx_write
                            *COM*:0000000000000001 idx_tx_read
                            *COM*:0000000000000001 idx_tx_write
                            *COM*:0000000000000001 error_timeout
     /tmp/ccaVvWu8.s:85     .text.serial_close:0000000000000000 $t
     /tmp/ccaVvWu8.s:90     .text.serial_close:0000000000000000 serial_close
     /tmp/ccaVvWu8.s:99     .text.serial_putc:0000000000000000 $t
     /tmp/ccaVvWu8.s:104    .text.serial_putc:0000000000000000 serial_putc
     /tmp/ccaVvWu8.s:115    .text.serial_is_rx_ready:0000000000000000 $t
     /tmp/ccaVvWu8.s:120    .text.serial_is_rx_ready:0000000000000000 serial_is_rx_ready
     /tmp/ccaVvWu8.s:130    .text.serial_getc:0000000000000000 $t
     /tmp/ccaVvWu8.s:135    .text.serial_getc:0000000000000000 serial_getc
     /tmp/ccaVvWu8.s:148    .text.serial_sharp_received:0000000000000000 $t
     /tmp/ccaVvWu8.s:153    .text.serial_sharp_received:0000000000000000 serial_sharp_received
     /tmp/ccaVvWu8.s:170    .text.serial_readc:0000000000000000 $t
     /tmp/ccaVvWu8.s:175    .text.serial_readc:0000000000000000 serial_readc
     /tmp/ccaVvWu8.s:192    .text.serial_readc:0000000000000018 $d
                            *COM*:0000000000000080 buffer_rx_usart
     /tmp/ccaVvWu8.s:196    .text.serial_putdata:0000000000000000 $t
     /tmp/ccaVvWu8.s:201    .text.serial_putdata:0000000000000000 serial_putdata
     /tmp/ccaVvWu8.s:219    .text.serial_getdata:0000000000000000 $t
     /tmp/ccaVvWu8.s:224    .text.serial_getdata:0000000000000000 serial_getdata
     /tmp/ccaVvWu8.s:234    .text.serial_add_crc:0000000000000000 $t
     /tmp/ccaVvWu8.s:239    .text.serial_add_crc:0000000000000000 serial_add_crc
     /tmp/ccaVvWu8.s:253    .text.serial_add_crc:0000000000000014 $d
     /tmp/ccaVvWu8.s:256    .text.getbytes:0000000000000000 $t
     /tmp/ccaVvWu8.s:260    .text.getbytes:0000000000000000 getbytes
     /tmp/ccaVvWu8.s:313    .text.getbytes:0000000000000058 $d
                            *COM*:0000000000000002 size_of_data
                            *COM*:0000000000000001 mode_of_transfer
     /tmp/ccaVvWu8.s:318    .text.serial_putdata_xmd:0000000000000000 $t
     /tmp/ccaVvWu8.s:323    .text.serial_putdata_xmd:0000000000000000 serial_putdata_xmd
     /tmp/ccaVvWu8.s:456    .text.serial_putdata_xmd:00000000000000fc $d
     /tmp/ccaVvWu8.s:461    .text.serial_getdata_xmd:0000000000000000 $t
     /tmp/ccaVvWu8.s:466    .text.serial_getdata_xmd:0000000000000000 serial_getdata_xmd
     /tmp/ccaVvWu8.s:592    .text.serial_getdata_xmd:00000000000000e4 $d
                            *COM*:0000000000000080 buffer_tx_usart
     /tmp/ccaVvWu8.s:608    .rodata.crc16Table:0000000000000000 $d
     /tmp/ccaVvWu8.s:612    .rodata.crc16Table:0000000000000000 crc16Table

UNDEFINED SYMBOLS
pinMux
uart_basic_init
uart_disable
uart_write_byte
uart_read_byte
